target datalayout = "e-m:e-p270:32:32-p271:32:32-p272:64:64-i64:64-i128:128-f80:128-n8:16:32:64-S128"
target triple = "x86_64-pc-linux-gnu"

@__clewGetDeviceIDs = external global ptr, align 8
@.str.15 = private unnamed_addr constant [28 x i8] c"clGetDeviceIDs returned %d\0A\00", align 1
@__clewCreateContext = external global ptr, align 8
@.str.16 = private unnamed_addr constant [15 x i8] c"numDevices=%d\0A\00", align 1

; Function Attrs: mustprogress uwtable
define dso_local ptr @b3OpenCLUtils_createContextFromPlatform(ptr noundef %0, i64 noundef %1, ptr noundef %2, ptr noundef %3, ptr noundef %4, i32 noundef %5, i32 noundef %6) #0 {
  %8 = alloca ptr, align 8
  %9 = alloca ptr, align 8
  %10 = alloca i64, align 8
  %11 = alloca ptr, align 8
  %12 = alloca ptr, align 8
  %13 = alloca ptr, align 8
  %14 = alloca i32, align 4
  %15 = alloca i32, align 4
  %16 = alloca ptr, align 8
  %17 = alloca i32, align 4
  %18 = alloca i32, align 4
  %19 = alloca [16 x ptr], align 16
  %20 = alloca i32, align 4
  %21 = alloca ptr, align 8
  %22 = alloca [7 x i64], align 16
  %23 = alloca i32, align 4
  %24 = alloca i32, align 4
  store ptr %0, ptr %9, align 8, !tbaa !16
  store i64 %1, ptr %10, align 8, !tbaa !10
  store ptr %2, ptr %11, align 8, !tbaa !14
  store ptr %3, ptr %12, align 8, !tbaa !9
  store ptr %4, ptr %13, align 8, !tbaa !9
  store i32 %5, ptr %14, align 4, !tbaa !12
  store i32 %6, ptr %15, align 4, !tbaa !12
  call void @llvm.lifetime.start.p0(i64 8, ptr %16) #9
  store ptr null, ptr %16, align 8, !tbaa !23
  call void @llvm.lifetime.start.p0(i64 4, ptr %17) #9
  store i32 0, ptr %17, align 4, !tbaa !12
  call void @llvm.lifetime.start.p0(i64 4, ptr %18) #9
  call void @llvm.lifetime.start.p0(i64 128, ptr %19) #9
  call void @llvm.lifetime.start.p0(i64 4, ptr %20) #9
  call void @llvm.lifetime.start.p0(i64 8, ptr %21) #9
  call void @llvm.lifetime.start.p0(i64 56, ptr %22) #9
  call void @llvm.memset.p0.i64(ptr align 16 %22, i8 0, i64 56, i1 false)
  %25 = getelementptr inbounds [7 x i64], ptr %22, i64 0, i64 0
  store i64 4228, ptr %25, align 16, !tbaa !10
  %26 = load ptr, ptr %9, align 8, !tbaa !16
  %27 = ptrtoint ptr %26 to i64
  %28 = getelementptr inbounds [7 x i64], ptr %22, i64 0, i64 1
  store i64 %27, ptr %28, align 8, !tbaa !10
  store i32 16, ptr %18, align 4, !tbaa !12
  store i32 -1, ptr %20, align 4, !tbaa !12
  %29 = load ptr, ptr @__clewGetDeviceIDs, align 8, !tbaa !9
  %30 = load ptr, ptr %9, align 8, !tbaa !16
  %31 = load i64, ptr %10, align 8, !tbaa !10
  %32 = load i32, ptr %18, align 4, !tbaa !12
  %33 = getelementptr inbounds [16 x ptr], ptr %19, i64 0, i64 0
  %34 = call i32 %29(ptr noundef %30, i64 noundef %31, i32 noundef %32, ptr noundef %33, ptr noundef %20)
  store i32 %34, ptr %17, align 4, !tbaa !12
  %35 = load i32, ptr %17, align 4, !tbaa !12
  %36 = icmp slt i32 %35, 0
  br i1 %36, label %37, label %39

37:                                               ; preds = %7
  %38 = load i32, ptr %17, align 4, !tbaa !12
  call void (ptr, ...) @b3OutputPrintfVarArgsInternal(ptr noundef @.str.15, i32 noundef %38)
  store ptr null, ptr %8, align 8
  store i32 1, ptr %23, align 4
  br label %103

39:                                               ; preds = %7
  %40 = load ptr, ptr %9, align 8, !tbaa !16
  %41 = icmp eq ptr null, %40
  br i1 %41, label %42, label %43

42:                                               ; preds = %39
  br label %45

43:                                               ; preds = %39
  %44 = getelementptr inbounds [7 x i64], ptr %22, i64 0, i64 0
  br label %45

45:                                               ; preds = %43, %42
  %46 = phi ptr [ null, %42 ], [ %44, %43 ]
  store ptr %46, ptr %21, align 8, !tbaa !25
  %47 = load i32, ptr %20, align 4, !tbaa !12
  %48 = icmp ne i32 %47, 0
  br i1 %48, label %50, label %49

49:                                               ; preds = %45
  store ptr null, ptr %8, align 8
  store i32 1, ptr %23, align 4
  br label %103

50:                                               ; preds = %45
  %51 = load ptr, ptr %12, align 8, !tbaa !9
  %52 = icmp ne ptr %51, null
  br i1 %52, label %53, label %73

53:                                               ; preds = %50
  call void @llvm.lifetime.start.p0(i64 4, ptr %24) #9
  store i32 0, ptr %24, align 4, !tbaa !12
  br label %54

54:                                               ; preds = %69, %53
  %55 = load i32, ptr %24, align 4, !tbaa !12
  %56 = load i32, ptr %20, align 4, !tbaa !12
  %57 = icmp ult i32 %55, %56
  br i1 %57, label %58, label %72

58:                                               ; preds = %54
  %59 = load ptr, ptr @__clewCreateContext, align 8, !tbaa !9
  %60 = load ptr, ptr %21, align 8, !tbaa !25
  %61 = load i32, ptr %24, align 4, !tbaa !12
  %62 = zext i32 %61 to i64
  %63 = getelementptr inbounds nuw [16 x ptr], ptr %19, i64 0, i64 %62
  %64 = call ptr %59(ptr noundef %60, i32 noundef 1, ptr noundef %63, ptr noundef null, ptr noundef null, ptr noundef %17)
  store ptr %64, ptr %16, align 8, !tbaa !23
  %65 = load i32, ptr %17, align 4, !tbaa !12
  %66 = icmp eq i32 %65, 0
  br i1 %66, label %67, label %68

67:                                               ; preds = %58
  br label %72

68:                                               ; preds = %58
  br label %69

69:                                               ; preds = %68
  %70 = load i32, ptr %24, align 4, !tbaa !12
  %71 = add i32 %70, 1
  store i32 %71, ptr %24, align 4, !tbaa !12
  br label %54, !llvm.loop !27

72:                                               ; preds = %67, %54
  call void @llvm.lifetime.end.p0(i64 4, ptr %24) #9
  br label %95

73:                                               ; preds = %50
  %74 = load i32, ptr %14, align 4, !tbaa !12
  %75 = icmp sge i32 %74, 0
  br i1 %75, label %76, label %87

76:                                               ; preds = %73
  %77 = load i32, ptr %14, align 4, !tbaa !12
  %78 = load i32, ptr %20, align 4, !tbaa !12
  %79 = icmp ult i32 %77, %78
  br i1 %79, label %80, label %87

80:                                               ; preds = %76
  %81 = load ptr, ptr @__clewCreateContext, align 8, !tbaa !9
  %82 = load ptr, ptr %21, align 8, !tbaa !25
  %83 = load i32, ptr %14, align 4, !tbaa !12
  %84 = sext i32 %83 to i64
  %85 = getelementptr inbounds [16 x ptr], ptr %19, i64 0, i64 %84
  %86 = call ptr %81(ptr noundef %82, i32 noundef 1, ptr noundef %85, ptr noundef null, ptr noundef null, ptr noundef %17)
  store ptr %86, ptr %16, align 8, !tbaa !23
  br label %94

87:                                               ; preds = %76, %73
  %88 = load i32, ptr %20, align 4, !tbaa !12
  call void (ptr, ...) @b3OutputPrintfVarArgsInternal(ptr noundef @.str.16, i32 noundef %88)
  %89 = load ptr, ptr @__clewCreateContext, align 8, !tbaa !9
  %90 = load ptr, ptr %21, align 8, !tbaa !25
  %91 = load i32, ptr %20, align 4, !tbaa !12
  %92 = getelementptr inbounds [16 x ptr], ptr %19, i64 0, i64 0
  %93 = call ptr %89(ptr noundef %90, i32 noundef %91, ptr noundef %92, ptr noundef null, ptr noundef null, ptr noundef %17)
  store ptr %93, ptr %16, align 8, !tbaa !23
  br label %94

94:                                               ; preds = %87, %80
  br label %95

95:                                               ; preds = %94, %72
  %96 = load ptr, ptr %11, align 8, !tbaa !14
  %97 = icmp ne ptr %96, null
  br i1 %97, label %98, label %101

98:                                               ; preds = %95
  %99 = load i32, ptr %17, align 4, !tbaa !12
  %100 = load ptr, ptr %11, align 8, !tbaa !14
  store i32 %99, ptr %100, align 4, !tbaa !12
  br label %101

101:                                              ; preds = %98, %95
  %102 = load ptr, ptr %16, align 8, !tbaa !23
  store ptr %102, ptr %8, align 8
  store i32 1, ptr %23, align 4
  br label %103

103:                                              ; preds = %101, %49, %37
  call void @llvm.lifetime.end.p0(i64 56, ptr %22) #9
  call void @llvm.lifetime.end.p0(i64 8, ptr %21) #9
  call void @llvm.lifetime.end.p0(i64 4, ptr %20) #9
  call void @llvm.lifetime.end.p0(i64 128, ptr %19) #9
  call void @llvm.lifetime.end.p0(i64 4, ptr %18) #9
  call void @llvm.lifetime.end.p0(i64 4, ptr %17) #9
  call void @llvm.lifetime.end.p0(i64 8, ptr %16) #9
  %104 = load ptr, ptr %8, align 8
  ret ptr %104
}