; Function Attrs: mustprogress uwtable
define dso_local ptr @b3OpenCLUtils_createContextFromPlatform(ptr noundef %0, i64 noundef %1, ptr noundef writeonly captures(address_is_null) %2, ptr noundef readnone captures(address_is_null) %3, ptr readnone captures(none) %4, i32 noundef %5, i32 %6) local_unnamed_addr #0 {
  %8 = alloca i32, align 4
  %9 = alloca [16 x ptr], align 16
  %10 = alloca i32, align 4
  %11 = alloca [7 x i64], align 16
  call void @llvm.lifetime.start.p0(i64 4, ptr nonnull %8) #12
  call void @llvm.lifetime.start.p0(i64 128, ptr nonnull %9) #12
  call void @llvm.lifetime.start.p0(i64 4, ptr nonnull %10) #12
  call void @llvm.lifetime.start.p0(i64 56, ptr nonnull %11) #12
  %12 = getelementptr inbounds nuw i8, ptr %11, i64 16
  call void @llvm.memset.p0.i64(ptr noundef nonnull align 16 dereferenceable(56) %12, i8 0, i64 40, i1 false)
  store i64 4228, ptr %11, align 16, !tbaa !15
  %13 = ptrtoint ptr %0 to i64
  %14 = getelementptr inbounds nuw i8, ptr %11, i64 8
  store i64 %13, ptr %14, align 8, !tbaa !15
  store i32 -1, ptr %10, align 4, !tbaa !4
  %15 = load ptr, ptr @__clewGetDeviceIDs, align 8, !tbaa !8
  %16 = call i32 %15(ptr noundef %0, i64 noundef %1, i32 noundef 16, ptr noundef nonnull %9, ptr noundef nonnull %10)
  store i32 %16, ptr %8, align 4, !tbaa !4
  %17 = icmp slt i32 %16, 0
  br i1 %17, label %18, label %19

18:                                               ; preds = %7
  call void (ptr, ...) @b3OutputPrintfVarArgsInternal(ptr noundef nonnull @.str.15, i32 noundef %16)
  br label %47

19:                                               ; preds = %7
  %20 = icmp eq ptr %0, null
  %21 = select i1 %20, ptr null, ptr %11
  %22 = load i32, ptr %10, align 4, !tbaa !4
  %.not = icmp eq i32 %22, 0
  br i1 %.not, label %47, label %23

23:                                               ; preds = %19
  %.not24 = icmp eq ptr %3, null
  br i1 %.not24, label %33, label %.lr.ph

24:                                               ; preds = %.lr.ph
  %indvars.iv.next = add nuw nsw i64 %indvars.iv, 1
  %25 = load i32, ptr %10, align 4, !tbaa !4
  %26 = zext i32 %25 to i64
  %27 = icmp samesign ult i64 %indvars.iv.next, %26
  br i1 %27, label %.lr.ph, label %.loopexit, !llvm.loop !17

.lr.ph:                                           ; preds = %23, %24
  %indvars.iv = phi i64 [ %indvars.iv.next, %24 ], [ 0, %23 ]
  %28 = load ptr, ptr @__clewCreateContext, align 8, !tbaa !8
  %29 = getelementptr inbounds nuw [16 x ptr], ptr %9, i64 0, i64 %indvars.iv
  %30 = call ptr %28(ptr noundef %21, i32 noundef 1, ptr noundef nonnull %29, ptr noundef null, ptr noundef null, ptr noundef nonnull %8)
  %31 = load i32, ptr %8, align 4, !tbaa !4
  %32 = icmp eq i32 %31, 0
  br i1 %32, label %.loopexit, label %24

33:                                               ; preds = %23
  %34 = icmp sgt i32 %5, -1
  %35 = icmp ult i32 %5, %22
  %or.cond = and i1 %34, %35
  br i1 %or.cond, label %36, label %41

36:                                               ; preds = %33
  %37 = load ptr, ptr @__clewCreateContext, align 8, !tbaa !8
  %38 = zext nneg i32 %5 to i64
  %39 = getelementptr inbounds nuw [16 x ptr], ptr %9, i64 0, i64 %38
  %40 = call ptr %37(ptr noundef %21, i32 noundef 1, ptr noundef nonnull %39, ptr noundef null, ptr noundef null, ptr noundef nonnull %8)
  br label %.loopexit

41:                                               ; preds = %33
  call void (ptr, ...) @b3OutputPrintfVarArgsInternal(ptr noundef nonnull @.str.16, i32 noundef %22)
  %42 = load ptr, ptr @__clewCreateContext, align 8, !tbaa !8
  %43 = load i32, ptr %10, align 4, !tbaa !4
  %44 = call ptr %42(ptr noundef %21, i32 noundef %43, ptr noundef nonnull %9, ptr noundef null, ptr noundef null, ptr noundef nonnull %8)
  br label %.loopexit

.loopexit:                                        ; preds = %.lr.ph, %24, %36, %41
  %.2 = phi ptr [ %40, %36 ], [ %44, %41 ], [ %30, %24 ], [ %30, %.lr.ph ]
  %.not25 = icmp eq ptr %2, null
  br i1 %.not25, label %47, label %45

45:                                               ; preds = %.loopexit
  %46 = load i32, ptr %8, align 4, !tbaa !4
  store i32 %46, ptr %2, align 4, !tbaa !4
  br label %47

47:                                               ; preds = %.loopexit, %45, %19, %18
  %.018 = phi ptr [ null, %18 ], [ null, %19 ], [ %.2, %45 ], [ %.2, %.loopexit ]
  call void @llvm.lifetime.end.p0(i64 56, ptr nonnull %11) #12
  call void @llvm.lifetime.end.p0(i64 4, ptr nonnull %10) #12
  call void @llvm.lifetime.end.p0(i64 128, ptr nonnull %9) #12
  call void @llvm.lifetime.end.p0(i64 4, ptr nonnull %8) #12
  ret ptr %.018
}